target datalayout = "e-m:e-p270:32:32-p271:32:32-p272:64:64-i64:64-i128:128-f80:128-n8:16:32:64-S128"
target triple = "x86_64-pc-linux-gnu"

%class.Sample_SoloMesh = type <{ %class.Sample, i8, [3 x i8], float, ptr, ptr, ptr, ptr, ptr, %struct.rcConfig, [4 x i8], ptr, i32, [4 x i8] }>
%class.Sample = type { ptr, ptr, ptr, ptr, ptr, i8, float, float, float, float, float, float, float, float, float, float, float, float, float, i32, i8, i8, i8, ptr, [9 x ptr], ptr, %class.SampleDebugDraw }
%class.SampleDebugDraw = type { %class.DebugDrawGL }
%class.DebugDrawGL = type { %struct.duDebugDraw }
%struct.duDebugDraw = type { ptr }
%struct.rcConfig = type { i32, i32, i32, i32, float, float, [3 x float], [3 x float], float, i32, i32, i32, i32, float, i32, i32, i32, float, float }

@.str = private unnamed_addr constant [25 x i8] c"Keep Itermediate Results\00", align 1
@.str.1 = private unnamed_addr constant [5 x i8] c"Save\00", align 1
@.str.2 = private unnamed_addr constant [17 x i8] c"solo_navmesh.bin\00", align 1
@.str.3 = private unnamed_addr constant [5 x i8] c"Load\00", align 1
@.str.4 = private unnamed_addr constant [19 x i8] c"Build Time: %.1fms\00", align 1

; Function Attrs: mustprogress uwtable
define dso_local void @_ZN15Sample_SoloMesh14handleSettingsEv(ptr noundef nonnull align 8 dereferenceable(356) %0) unnamed_addr #0 align 2 {
  %2 = alloca ptr, align 8
  %3 = alloca [64 x i8], align 16
  store ptr %0, ptr %2, align 8
  %4 = load ptr, ptr %2, align 8
  call void @_ZN6Sample20handleCommonSettingsEv(ptr noundef nonnull align 8 dereferenceable(200) %4)
  %5 = getelementptr inbounds %class.Sample_SoloMesh, ptr %4, i32 0, i32 1
  %6 = load i8, ptr %5, align 8
  %7 = trunc i8 %6 to i1
  %8 = call noundef zeroext i1 @_Z10imguiCheckPKcbb(ptr noundef @.str, i1 noundef zeroext %7, i1 noundef zeroext true)
  br i1 %8, label %9, label %16

9:                                                ; preds = %1
  %10 = getelementptr inbounds %class.Sample_SoloMesh, ptr %4, i32 0, i32 1
  %11 = load i8, ptr %10, align 8
  %12 = trunc i8 %11 to i1
  %13 = xor i1 %12, true
  %14 = getelementptr inbounds %class.Sample_SoloMesh, ptr %4, i32 0, i32 1
  %15 = zext i1 %13 to i8
  store i8 %15, ptr %14, align 8
  br label %16

16:                                               ; preds = %9, %1
  call void @_Z14imguiSeparatorv()
  call void @_Z11imguiIndentv()
  call void @_Z11imguiIndentv()
  %17 = call noundef zeroext i1 @_Z11imguiButtonPKcb(ptr noundef @.str.1, i1 noundef zeroext true)
  br i1 %17, label %18, label %21

18:                                               ; preds = %16
  %19 = getelementptr inbounds %class.Sample, ptr %4, i32 0, i32 2
  %20 = load ptr, ptr %19, align 8
  call void @_ZN6Sample7saveAllEPKcPK9dtNavMesh(ptr noundef nonnull align 8 dereferenceable(200) %4, ptr noundef @.str.2, ptr noundef %20)
  br label %21

21:                                               ; preds = %18, %16
  %22 = call noundef zeroext i1 @_Z11imguiButtonPKcb(ptr noundef @.str.3, i1 noundef zeroext true)
  br i1 %22, label %23, label %33

23:                                               ; preds = %21
  %24 = getelementptr inbounds %class.Sample, ptr %4, i32 0, i32 2
  %25 = load ptr, ptr %24, align 8
  call void @_Z13dtFreeNavMeshP9dtNavMesh(ptr noundef %25)
  %26 = call noundef ptr @_ZN6Sample7loadAllEPKc(ptr noundef nonnull align 8 dereferenceable(200) %4, ptr noundef @.str.2)
  %27 = getelementptr inbounds %class.Sample, ptr %4, i32 0, i32 2
  store ptr %26, ptr %27, align 8
  %28 = getelementptr inbounds %class.Sample, ptr %4, i32 0, i32 3
  %29 = load ptr, ptr %28, align 8
  %30 = getelementptr inbounds %class.Sample, ptr %4, i32 0, i32 2
  %31 = load ptr, ptr %30, align 8
  %32 = call noundef i32 @_ZN14dtNavMeshQuery4initEPK9dtNavMeshi(ptr noundef nonnull align 8 dereferenceable(104) %29, ptr noundef %31, i32 noundef 2048)
  br label %33

33:                                               ; preds = %23, %21
  call void @_Z13imguiUnindentv()
  call void @_Z13imguiUnindentv()
  %34 = getelementptr inbounds [64 x i8], ptr %3, i64 0, i64 0
  %35 = getelementptr inbounds %class.Sample_SoloMesh, ptr %4, i32 0, i32 3
  %36 = load float, ptr %35, align 4
  %37 = fpext float %36 to double
  %38 = call i32 (ptr, i64, ptr, ...) @snprintf(ptr noundef %34, i64 noundef 64, ptr noundef @.str.4, double noundef %37) #11
  %39 = getelementptr inbounds [64 x i8], ptr %3, i64 0, i64 0
  call void @_Z10imguiLabelPKc(ptr noundef %39)
  call void @_Z14imguiSeparatorv()
  ret void
}