; Function Attrs: mustprogress uwtable
define dso_local void @_ZN15Sample_SoloMesh14handleSettingsEv(ptr noundef nonnull align 8 dereferenceable(356) %0) unnamed_addr #0 align 2 {
  %2 = alloca [64 x i8], align 16
  tail call void @_ZN6Sample20handleCommonSettingsEv(ptr noundef nonnull align 8 dereferenceable(200) %0)
  %3 = getelementptr inbounds i8, ptr %0, i64 200
  %4 = load i8, ptr %3, align 8
  %5 = and i8 %4, 1
  %6 = icmp ne i8 %5, 0
  %7 = tail call noundef zeroext i1 @_Z10imguiCheckPKcbb(ptr noundef nonnull @.str, i1 noundef zeroext %6, i1 noundef zeroext true)
  br i1 %7, label %8, label %12

8:                                                ; preds = %1
  %9 = load i8, ptr %3, align 8
  %10 = and i8 %9, 1
  %11 = xor i8 %10, 1
  store i8 %11, ptr %3, align 8
  br label %12

12:                                               ; preds = %8, %1
  tail call void @_Z14imguiSeparatorv()
  tail call void @_Z11imguiIndentv()
  tail call void @_Z11imguiIndentv()
  %13 = tail call noundef zeroext i1 @_Z11imguiButtonPKcb(ptr noundef nonnull @.str.1, i1 noundef zeroext true)
  br i1 %13, label %14, label %17

14:                                               ; preds = %12
  %15 = getelementptr inbounds i8, ptr %0, i64 16
  %16 = load ptr, ptr %15, align 8
  tail call void @_ZN6Sample7saveAllEPKcPK9dtNavMesh(ptr noundef nonnull align 8 dereferenceable(200) %0, ptr noundef nonnull @.str.2, ptr noundef %16)
  br label %17

17:                                               ; preds = %14, %12
  %18 = tail call noundef zeroext i1 @_Z11imguiButtonPKcb(ptr noundef nonnull @.str.3, i1 noundef zeroext true)
  br i1 %18, label %19, label %26

19:                                               ; preds = %17
  %20 = getelementptr inbounds i8, ptr %0, i64 16
  %21 = load ptr, ptr %20, align 8
  tail call void @_Z13dtFreeNavMeshP9dtNavMesh(ptr noundef %21)
  %22 = tail call noundef ptr @_ZN6Sample7loadAllEPKc(ptr noundef nonnull align 8 dereferenceable(200) %0, ptr noundef nonnull @.str.2)
  store ptr %22, ptr %20, align 8
  %23 = getelementptr inbounds i8, ptr %0, i64 24
  %24 = load ptr, ptr %23, align 8
  %25 = tail call noundef i32 @_ZN14dtNavMeshQuery4initEPK9dtNavMeshi(ptr noundef nonnull align 8 dereferenceable(104) %24, ptr noundef %22, i32 noundef 2048)
  br label %26

26:                                               ; preds = %19, %17
  tail call void @_Z13imguiUnindentv()
  tail call void @_Z13imguiUnindentv()
  %27 = getelementptr inbounds i8, ptr %0, i64 204
  %28 = load float, ptr %27, align 4
  %29 = fpext float %28 to double
  %30 = call i32 (ptr, i64, ptr, ...) @snprintf(ptr noundef nonnull dereferenceable(1) %2, i64 noundef 64, ptr noundef nonnull @.str.4, double noundef %29) #12
  call void @_Z10imguiLabelPKc(ptr noundef nonnull %2)
  call void @_Z14imguiSeparatorv()
  ret void
}